target datalayout = "e-m:e-p270:32:32-p271:32:32-p272:64:64-i64:64-i128:128-f80:128-n8:16:32:64-S128"
target triple = "x86_64-pc-linux-gnu"

; Function Attrs: alwaysinline nounwind willreturn memory(none) uwtable
define internal zeroext i8 @av_clip_uint8_c(i32 noundef %0) #4 {
  %2 = alloca i8, align 1
  %3 = alloca i32, align 4
  store i32 %0, ptr %3, align 4, !tbaa !21
  %4 = load i32, ptr %3, align 4, !tbaa !21
  %5 = and i32 %4, -256
  %6 = icmp ne i32 %5, 0
  br i1 %6, label %7, label %12

7:                                                ; preds = %1
  %8 = load i32, ptr %3, align 4, !tbaa !21
  %9 = xor i32 %8, -1
  %10 = ashr i32 %9, 31
  %11 = trunc i32 %10 to i8
  store i8 %11, ptr %2, align 1
  br label %15

12:                                               ; preds = %1
  %13 = load i32, ptr %3, align 4, !tbaa !21
  %14 = trunc i32 %13 to i8
  store i8 %14, ptr %2, align 1
  br label %15

15:                                               ; preds = %12, %7
  %16 = load i8, ptr %2, align 1
  ret i8 %16
}

; Function Attrs: nounwind uwtable
define internal void @wmv2_idct_row(ptr noundef %0) #1 {
  %2 = alloca ptr, align 8
  %3 = alloca i32, align 4
  %4 = alloca i32, align 4
  %5 = alloca i32, align 4
  %6 = alloca i32, align 4
  %7 = alloca i32, align 4
  %8 = alloca i32, align 4
  %9 = alloca i32, align 4
  %10 = alloca i32, align 4
  %11 = alloca i32, align 4
  %12 = alloca i32, align 4
  store ptr %0, ptr %2, align 8, !tbaa !19
  call void @llvm.lifetime.start.p0(i64 4, ptr %3) #5
  call void @llvm.lifetime.start.p0(i64 4, ptr %4) #5
  call void @llvm.lifetime.start.p0(i64 4, ptr %5) #5
  call void @llvm.lifetime.start.p0(i64 4, ptr %6) #5
  call void @llvm.lifetime.start.p0(i64 4, ptr %7) #5
  call void @llvm.lifetime.start.p0(i64 4, ptr %8) #5
  call void @llvm.lifetime.start.p0(i64 4, ptr %9) #5
  call void @llvm.lifetime.start.p0(i64 4, ptr %10) #5
  call void @llvm.lifetime.start.p0(i64 4, ptr %11) #5
  call void @llvm.lifetime.start.p0(i64 4, ptr %12) #5
  %13 = load ptr, ptr %2, align 8, !tbaa !19
  %14 = getelementptr inbounds i16, ptr %13, i64 1
  %15 = load i16, ptr %14, align 2, !tbaa !26
  %16 = sext i16 %15 to i32
  %17 = mul nsw i32 2841, %16
  %18 = load ptr, ptr %2, align 8, !tbaa !19
  %19 = getelementptr inbounds i16, ptr %18, i64 7
  %20 = load i16, ptr %19, align 2, !tbaa !26
  %21 = sext i16 %20 to i32
  %22 = mul nsw i32 565, %21
  %23 = add nsw i32 %17, %22
  store i32 %23, ptr %6, align 4, !tbaa !21
  %24 = load ptr, ptr %2, align 8, !tbaa !19
  %25 = getelementptr inbounds i16, ptr %24, i64 1
  %26 = load i16, ptr %25, align 2, !tbaa !26
  %27 = sext i16 %26 to i32
  %28 = mul nsw i32 565, %27
  %29 = load ptr, ptr %2, align 8, !tbaa !19
  %30 = getelementptr inbounds i16, ptr %29, i64 7
  %31 = load i16, ptr %30, align 2, !tbaa !26
  %32 = sext i16 %31 to i32
  %33 = mul nsw i32 2841, %32
  %34 = sub nsw i32 %28, %33
  store i32 %34, ptr %12, align 4, !tbaa !21
  %35 = load ptr, ptr %2, align 8, !tbaa !19
  %36 = getelementptr inbounds i16, ptr %35, i64 5
  %37 = load i16, ptr %36, align 2, !tbaa !26
  %38 = sext i16 %37 to i32
  %39 = mul nsw i32 1609, %38
  %40 = load ptr, ptr %2, align 8, !tbaa !19
  %41 = getelementptr inbounds i16, ptr %40, i64 3
  %42 = load i16, ptr %41, align 2, !tbaa !26
  %43 = sext i16 %42 to i32
  %44 = mul nsw i32 2408, %43
  %45 = add nsw i32 %39, %44
  store i32 %45, ptr %10, align 4, !tbaa !21
  %46 = load ptr, ptr %2, align 8, !tbaa !19
  %47 = getelementptr inbounds i16, ptr %46, i64 5
  %48 = load i16, ptr %47, align 2, !tbaa !26
  %49 = sext i16 %48 to i32
  %50 = mul nsw i32 2408, %49
  %51 = load ptr, ptr %2, align 8, !tbaa !19
  %52 = getelementptr inbounds i16, ptr %51, i64 3
  %53 = load i16, ptr %52, align 2, !tbaa !26
  %54 = sext i16 %53 to i32
  %55 = mul nsw i32 1609, %54
  %56 = sub nsw i32 %50, %55
  store i32 %56, ptr %8, align 4, !tbaa !21
  %57 = load ptr, ptr %2, align 8, !tbaa !19
  %58 = getelementptr inbounds i16, ptr %57, i64 2
  %59 = load i16, ptr %58, align 2, !tbaa !26
  %60 = sext i16 %59 to i32
  %61 = mul nsw i32 2676, %60
  %62 = load ptr, ptr %2, align 8, !tbaa !19
  %63 = getelementptr inbounds i16, ptr %62, i64 6
  %64 = load i16, ptr %63, align 2, !tbaa !26
  %65 = sext i16 %64 to i32
  %66 = mul nsw i32 1108, %65
  %67 = add nsw i32 %61, %66
  store i32 %67, ptr %7, align 4, !tbaa !21
  %68 = load ptr, ptr %2, align 8, !tbaa !19
  %69 = getelementptr inbounds i16, ptr %68, i64 2
  %70 = load i16, ptr %69, align 2, !tbaa !26
  %71 = sext i16 %70 to i32
  %72 = mul nsw i32 1108, %71
  %73 = load ptr, ptr %2, align 8, !tbaa !19
  %74 = getelementptr inbounds i16, ptr %73, i64 6
  %75 = load i16, ptr %74, align 2, !tbaa !26
  %76 = sext i16 %75 to i32
  %77 = mul nsw i32 2676, %76
  %78 = sub nsw i32 %72, %77
  store i32 %78, ptr %11, align 4, !tbaa !21
  %79 = load ptr, ptr %2, align 8, !tbaa !19
  %80 = getelementptr inbounds i16, ptr %79, i64 0
  %81 = load i16, ptr %80, align 2, !tbaa !26
  %82 = sext i16 %81 to i32
  %83 = mul nsw i32 2048, %82
  %84 = load ptr, ptr %2, align 8, !tbaa !19
  %85 = getelementptr inbounds i16, ptr %84, i64 4
  %86 = load i16, ptr %85, align 2, !tbaa !26
  %87 = sext i16 %86 to i32
  %88 = mul nsw i32 2048, %87
  %89 = add nsw i32 %83, %88
  store i32 %89, ptr %5, align 4, !tbaa !21
  %90 = load ptr, ptr %2, align 8, !tbaa !19
  %91 = getelementptr inbounds i16, ptr %90, i64 0
  %92 = load i16, ptr %91, align 2, !tbaa !26
  %93 = sext i16 %92 to i32
  %94 = mul nsw i32 2048, %93
  %95 = load ptr, ptr %2, align 8, !tbaa !19
  %96 = getelementptr inbounds i16, ptr %95, i64 4
  %97 = load i16, ptr %96, align 2, !tbaa !26
  %98 = sext i16 %97 to i32
  %99 = mul nsw i32 2048, %98
  %100 = sub nsw i32 %94, %99
  store i32 %100, ptr %9, align 4, !tbaa !21
  %101 = load i32, ptr %6, align 4, !tbaa !21
  %102 = load i32, ptr %10, align 4, !tbaa !21
  %103 = sub nsw i32 %101, %102
  %104 = load i32, ptr %12, align 4, !tbaa !21
  %105 = add nsw i32 %103, %104
  %106 = load i32, ptr %8, align 4, !tbaa !21
  %107 = sub nsw i32 %105, %106
  %108 = mul i32 181, %107
  %109 = add i32 %108, 128
  %110 = ashr i32 %109, 8
  store i32 %110, ptr %3, align 4, !tbaa !21
  %111 = load i32, ptr %6, align 4, !tbaa !21
  %112 = load i32, ptr %10, align 4, !tbaa !21
  %113 = sub nsw i32 %111, %112
  %114 = load i32, ptr %12, align 4, !tbaa !21
  %115 = sub nsw i32 %113, %114
  %116 = load i32, ptr %8, align 4, !tbaa !21
  %117 = add nsw i32 %115, %116
  %118 = mul i32 181, %117
  %119 = add i32 %118, 128
  %120 = ashr i32 %119, 8
  store i32 %120, ptr %4, align 4, !tbaa !21
  %121 = load i32, ptr %5, align 4, !tbaa !21
  %122 = load i32, ptr %7, align 4, !tbaa !21
  %123 = add nsw i32 %121, %122
  %124 = load i32, ptr %6, align 4, !tbaa !21
  %125 = add nsw i32 %123, %124
  %126 = load i32, ptr %10, align 4, !tbaa !21
  %127 = add nsw i32 %125, %126
  %128 = add nsw i32 %127, 128
  %129 = ashr i32 %128, 8
  %130 = trunc i32 %129 to i16
  %131 = load ptr, ptr %2, align 8, !tbaa !19
  %132 = getelementptr inbounds i16, ptr %131, i64 0
  store i16 %130, ptr %132, align 2, !tbaa !26
  %133 = load i32, ptr %9, align 4, !tbaa !21
  %134 = load i32, ptr %11, align 4, !tbaa !21
  %135 = add nsw i32 %133, %134
  %136 = load i32, ptr %3, align 4, !tbaa !21
  %137 = add nsw i32 %135, %136
  %138 = add nsw i32 %137, 128
  %139 = ashr i32 %138, 8
  %140 = trunc i32 %139 to i16
  %141 = load ptr, ptr %2, align 8, !tbaa !19
  %142 = getelementptr inbounds i16, ptr %141, i64 1
  store i16 %140, ptr %142, align 2, !tbaa !26
  %143 = load i32, ptr %9, align 4, !tbaa !21
  %144 = load i32, ptr %11, align 4, !tbaa !21
  %145 = sub nsw i32 %143, %144
  %146 = load i32, ptr %4, align 4, !tbaa !21
  %147 = add nsw i32 %145, %146
  %148 = add nsw i32 %147, 128
  %149 = ashr i32 %148, 8
  %150 = trunc i32 %149 to i16
  %151 = load ptr, ptr %2, align 8, !tbaa !19
  %152 = getelementptr inbounds i16, ptr %151, i64 2
  store i16 %150, ptr %152, align 2, !tbaa !26
  %153 = load i32, ptr %5, align 4, !tbaa !21
  %154 = load i32, ptr %7, align 4, !tbaa !21
  %155 = sub nsw i32 %153, %154
  %156 = load i32, ptr %12, align 4, !tbaa !21
  %157 = add nsw i32 %155, %156
  %158 = load i32, ptr %8, align 4, !tbaa !21
  %159 = add nsw i32 %157, %158
  %160 = add nsw i32 %159, 128
  %161 = ashr i32 %160, 8
  %162 = trunc i32 %161 to i16
  %163 = load ptr, ptr %2, align 8, !tbaa !19
  %164 = getelementptr inbounds i16, ptr %163, i64 3
  store i16 %162, ptr %164, align 2, !tbaa !26
  %165 = load i32, ptr %5, align 4, !tbaa !21
  %166 = load i32, ptr %7, align 4, !tbaa !21
  %167 = sub nsw i32 %165, %166
  %168 = load i32, ptr %12, align 4, !tbaa !21
  %169 = sub nsw i32 %167, %168
  %170 = load i32, ptr %8, align 4, !tbaa !21
  %171 = sub nsw i32 %169, %170
  %172 = add nsw i32 %171, 128
  %173 = ashr i32 %172, 8
  %174 = trunc i32 %173 to i16
  %175 = load ptr, ptr %2, align 8, !tbaa !19
  %176 = getelementptr inbounds i16, ptr %175, i64 4
  store i16 %174, ptr %176, align 2, !tbaa !26
  %177 = load i32, ptr %9, align 4, !tbaa !21
  %178 = load i32, ptr %11, align 4, !tbaa !21
  %179 = sub nsw i32 %177, %178
  %180 = load i32, ptr %4, align 4, !tbaa !21
  %181 = sub nsw i32 %179, %180
  %182 = add nsw i32 %181, 128
  %183 = ashr i32 %182, 8
  %184 = trunc i32 %183 to i16
  %185 = load ptr, ptr %2, align 8, !tbaa !19
  %186 = getelementptr inbounds i16, ptr %185, i64 5
  store i16 %184, ptr %186, align 2, !tbaa !26
  %187 = load i32, ptr %9, align 4, !tbaa !21
  %188 = load i32, ptr %11, align 4, !tbaa !21
  %189 = add nsw i32 %187, %188
  %190 = load i32, ptr %3, align 4, !tbaa !21
  %191 = sub nsw i32 %189, %190
  %192 = add nsw i32 %191, 128
  %193 = ashr i32 %192, 8
  %194 = trunc i32 %193 to i16
  %195 = load ptr, ptr %2, align 8, !tbaa !19
  %196 = getelementptr inbounds i16, ptr %195, i64 6
  store i16 %194, ptr %196, align 2, !tbaa !26
  %197 = load i32, ptr %5, align 4, !tbaa !21
  %198 = load i32, ptr %7, align 4, !tbaa !21
  %199 = add nsw i32 %197, %198
  %200 = load i32, ptr %6, align 4, !tbaa !21
  %201 = sub nsw i32 %199, %200
  %202 = load i32, ptr %10, align 4, !tbaa !21
  %203 = sub nsw i32 %201, %202
  %204 = add nsw i32 %203, 128
  %205 = ashr i32 %204, 8
  %206 = trunc i32 %205 to i16
  %207 = load ptr, ptr %2, align 8, !tbaa !19
  %208 = getelementptr inbounds i16, ptr %207, i64 7
  store i16 %206, ptr %208, align 2, !tbaa !26
  call void @llvm.lifetime.end.p0(i64 4, ptr %12) #5
  call void @llvm.lifetime.end.p0(i64 4, ptr %11) #5
  call void @llvm.lifetime.end.p0(i64 4, ptr %10) #5
  call void @llvm.lifetime.end.p0(i64 4, ptr %9) #5
  call void @llvm.lifetime.end.p0(i64 4, ptr %8) #5
  call void @llvm.lifetime.end.p0(i64 4, ptr %7) #5
  call void @llvm.lifetime.end.p0(i64 4, ptr %6) #5
  call void @llvm.lifetime.end.p0(i64 4, ptr %5) #5
  call void @llvm.lifetime.end.p0(i64 4, ptr %4) #5
  call void @llvm.lifetime.end.p0(i64 4, ptr %3) #5
  ret void
}

; Function Attrs: nounwind uwtable
define internal void @wmv2_idct_put_c(ptr noundef %0, i64 noundef %1, ptr noundef %2) #1 {
  %4 = alloca ptr, align 8
  %5 = alloca i64, align 8
  %6 = alloca ptr, align 8
  %7 = alloca i32, align 4
  store ptr %0, ptr %4, align 8, !tbaa !15
  store i64 %1, ptr %5, align 8, !tbaa !17
  store ptr %2, ptr %6, align 8, !tbaa !19
  call void @llvm.lifetime.start.p0(i64 4, ptr %7) #5
  store i32 0, ptr %7, align 4, !tbaa !21
  br label %8

8:                                                ; preds = %16, %3
  %9 = load i32, ptr %7, align 4, !tbaa !21
  %10 = icmp slt i32 %9, 64
  br i1 %10, label %11, label %19

11:                                               ; preds = %8
  %12 = load ptr, ptr %6, align 8, !tbaa !19
  %13 = load i32, ptr %7, align 4, !tbaa !21
  %14 = sext i32 %13 to i64
  %15 = getelementptr inbounds i16, ptr %12, i64 %14
  call void @wmv2_idct_row(ptr noundef %15)
  br label %16

16:                                               ; preds = %11
  %17 = load i32, ptr %7, align 4, !tbaa !21
  %18 = add nsw i32 %17, 8
  store i32 %18, ptr %7, align 4, !tbaa !21
  br label %8, !llvm.loop !29

19:                                               ; preds = %8
  store i32 0, ptr %7, align 4, !tbaa !21
  br label %20

20:                                               ; preds = %28, %19
  %21 = load i32, ptr %7, align 4, !tbaa !21
  %22 = icmp slt i32 %21, 8
  br i1 %22, label %23, label %31

23:                                               ; preds = %20
  %24 = load ptr, ptr %6, align 8, !tbaa !19
  %25 = load i32, ptr %7, align 4, !tbaa !21
  %26 = sext i32 %25 to i64
  %27 = getelementptr inbounds i16, ptr %24, i64 %26
  call void @wmv2_idct_col(ptr noundef %27)
  br label %28

28:                                               ; preds = %23
  %29 = load i32, ptr %7, align 4, !tbaa !21
  %30 = add nsw i32 %29, 1
  store i32 %30, ptr %7, align 4, !tbaa !21
  br label %20, !llvm.loop !30

31:                                               ; preds = %20
  store i32 0, ptr %7, align 4, !tbaa !21
  br label %32

32:                                               ; preds = %97, %31
  %33 = load i32, ptr %7, align 4, !tbaa !21
  %34 = icmp slt i32 %33, 8
  br i1 %34, label %35, label %100

35:                                               ; preds = %32
  %36 = load ptr, ptr %6, align 8, !tbaa !19
  %37 = getelementptr inbounds i16, ptr %36, i64 0
  %38 = load i16, ptr %37, align 2, !tbaa !26
  %39 = sext i16 %38 to i32
  %40 = call zeroext i8 @av_clip_uint8_c(i32 noundef %39) #6
  %41 = load ptr, ptr %4, align 8, !tbaa !15
  %42 = getelementptr inbounds i8, ptr %41, i64 0
  store i8 %40, ptr %42, align 1, !tbaa !25
  %43 = load ptr, ptr %6, align 8, !tbaa !19
  %44 = getelementptr inbounds i16, ptr %43, i64 1
  %45 = load i16, ptr %44, align 2, !tbaa !26
  %46 = sext i16 %45 to i32
  %47 = call zeroext i8 @av_clip_uint8_c(i32 noundef %46) #6
  %48 = load ptr, ptr %4, align 8, !tbaa !15
  %49 = getelementptr inbounds i8, ptr %48, i64 1
  store i8 %47, ptr %49, align 1, !tbaa !25
  %50 = load ptr, ptr %6, align 8, !tbaa !19
  %51 = getelementptr inbounds i16, ptr %50, i64 2
  %52 = load i16, ptr %51, align 2, !tbaa !26
  %53 = sext i16 %52 to i32
  %54 = call zeroext i8 @av_clip_uint8_c(i32 noundef %53) #6
  %55 = load ptr, ptr %4, align 8, !tbaa !15
  %56 = getelementptr inbounds i8, ptr %55, i64 2
  store i8 %54, ptr %56, align 1, !tbaa !25
  %57 = load ptr, ptr %6, align 8, !tbaa !19
  %58 = getelementptr inbounds i16, ptr %57, i64 3
  %59 = load i16, ptr %58, align 2, !tbaa !26
  %60 = sext i16 %59 to i32
  %61 = call zeroext i8 @av_clip_uint8_c(i32 noundef %60) #6
  %62 = load ptr, ptr %4, align 8, !tbaa !15
  %63 = getelementptr inbounds i8, ptr %62, i64 3
  store i8 %61, ptr %63, align 1, !tbaa !25
  %64 = load ptr, ptr %6, align 8, !tbaa !19
  %65 = getelementptr inbounds i16, ptr %64, i64 4
  %66 = load i16, ptr %65, align 2, !tbaa !26
  %67 = sext i16 %66 to i32
  %68 = call zeroext i8 @av_clip_uint8_c(i32 noundef %67) #6
  %69 = load ptr, ptr %4, align 8, !tbaa !15
  %70 = getelementptr inbounds i8, ptr %69, i64 4
  store i8 %68, ptr %70, align 1, !tbaa !25
  %71 = load ptr, ptr %6, align 8, !tbaa !19
  %72 = getelementptr inbounds i16, ptr %71, i64 5
  %73 = load i16, ptr %72, align 2, !tbaa !26
  %74 = sext i16 %73 to i32
  %75 = call zeroext i8 @av_clip_uint8_c(i32 noundef %74) #6
  %76 = load ptr, ptr %4, align 8, !tbaa !15
  %77 = getelementptr inbounds i8, ptr %76, i64 5
  store i8 %75, ptr %77, align 1, !tbaa !25
  %78 = load ptr, ptr %6, align 8, !tbaa !19
  %79 = getelementptr inbounds i16, ptr %78, i64 6
  %80 = load i16, ptr %79, align 2, !tbaa !26
  %81 = sext i16 %80 to i32
  %82 = call zeroext i8 @av_clip_uint8_c(i32 noundef %81) #6
  %83 = load ptr, ptr %4, align 8, !tbaa !15
  %84 = getelementptr inbounds i8, ptr %83, i64 6
  store i8 %82, ptr %84, align 1, !tbaa !25
  %85 = load ptr, ptr %6, align 8, !tbaa !19
  %86 = getelementptr inbounds i16, ptr %85, i64 7
  %87 = load i16, ptr %86, align 2, !tbaa !26
  %88 = sext i16 %87 to i32
  %89 = call zeroext i8 @av_clip_uint8_c(i32 noundef %88) #6
  %90 = load ptr, ptr %4, align 8, !tbaa !15
  %91 = getelementptr inbounds i8, ptr %90, i64 7
  store i8 %89, ptr %91, align 1, !tbaa !25
  %92 = load i64, ptr %5, align 8, !tbaa !17
  %93 = load ptr, ptr %4, align 8, !tbaa !15
  %94 = getelementptr inbounds i8, ptr %93, i64 %92
  store ptr %94, ptr %4, align 8, !tbaa !15
  %95 = load ptr, ptr %6, align 8, !tbaa !19
  %96 = getelementptr inbounds i16, ptr %95, i64 8
  store ptr %96, ptr %6, align 8, !tbaa !19
  br label %97

97:                                               ; preds = %35
  %98 = load i32, ptr %7, align 4, !tbaa !21
  %99 = add nsw i32 %98, 1
  store i32 %99, ptr %7, align 4, !tbaa !21
  br label %32, !llvm.loop !31

100:                                              ; preds = %32
  call void @llvm.lifetime.end.p0(i64 4, ptr %7) #5
  ret void
}