; Function Attrs: nofree norecurse nosync nounwind memory(argmem: readwrite) uwtable
define internal void @wmv2_idct_put_c(ptr noundef writeonly captures(none) %0, i64 noundef %1, ptr noundef captures(none) %2) #1 {
  br label %4

4:                                                ; preds = %3, %4
  %indvars.iv = phi i64 [ 0, %3 ], [ %indvars.iv.next, %4 ]
  %5 = getelementptr inbounds nuw i16, ptr %2, i64 %indvars.iv
  %6 = getelementptr inbounds nuw i8, ptr %5, i64 2
  %7 = load i16, ptr %6, align 2, !tbaa !13
  %8 = sext i16 %7 to i32
  %9 = mul nsw i32 %8, 2841
  %10 = getelementptr inbounds nuw i8, ptr %5, i64 14
  %11 = load i16, ptr %10, align 2, !tbaa !13
  %12 = sext i16 %11 to i32
  %13 = mul nsw i32 %12, 565
  %14 = add nsw i32 %13, %9
  %15 = mul nsw i32 %8, 565
  %.neg.i = mul nsw i32 %12, -2841
  %16 = add nsw i32 %.neg.i, %15
  %17 = getelementptr inbounds nuw i8, ptr %5, i64 10
  %18 = load i16, ptr %17, align 2, !tbaa !13
  %19 = sext i16 %18 to i32
  %20 = mul nsw i32 %19, 1609
  %21 = getelementptr inbounds nuw i8, ptr %5, i64 6
  %22 = load i16, ptr %21, align 2, !tbaa !13
  %23 = sext i16 %22 to i32
  %24 = mul nsw i32 %23, 2408
  %25 = add nsw i32 %24, %20
  %26 = mul nsw i32 %19, 2408
  %.neg59.i = mul nsw i32 %23, -1609
  %27 = add nsw i32 %.neg59.i, %26
  %28 = getelementptr inbounds nuw i8, ptr %5, i64 4
  %29 = load i16, ptr %28, align 2, !tbaa !13
  %30 = sext i16 %29 to i32
  %31 = mul nsw i32 %30, 2676
  %32 = getelementptr inbounds nuw i8, ptr %5, i64 12
  %33 = load i16, ptr %32, align 2, !tbaa !13
  %34 = sext i16 %33 to i32
  %35 = mul nsw i32 %34, 1108
  %36 = add nsw i32 %35, %31
  %37 = mul nsw i32 %30, 1108
  %.neg60.i = mul nsw i32 %34, -2676
  %38 = add nsw i32 %.neg60.i, %37
  %39 = load i16, ptr %5, align 2, !tbaa !13
  %40 = sext i16 %39 to i32
  %41 = shl nsw i32 %40, 11
  %42 = getelementptr inbounds nuw i8, ptr %5, i64 8
  %43 = load i16, ptr %42, align 2, !tbaa !13
  %44 = sext i16 %43 to i32
  %45 = shl nsw i32 %44, 11
  %46 = add nsw i32 %45, %41
  %47 = sub nsw i32 %41, %45
  %48 = sub nsw i32 %14, %25
  %49 = sub nsw i32 %16, %27
  %50 = add nsw i32 %49, %48
  %51 = mul i32 %50, 181
  %52 = add i32 %51, 128
  %53 = ashr i32 %52, 8
  %54 = sub nsw i32 %27, %16
  %55 = add nsw i32 %54, %48
  %56 = mul i32 %55, 181
  %57 = add i32 %56, 128
  %58 = ashr i32 %57, 8
  %59 = add nsw i32 %46, %36
  %60 = add nsw i32 %25, %14
  %61 = add nsw i32 %60, 128
  %62 = add nsw i32 %61, %59
  %63 = lshr i32 %62, 8
  %64 = trunc i32 %63 to i16
  store i16 %64, ptr %5, align 2, !tbaa !13
  %65 = add nsw i32 %47, %38
  %66 = add nsw i32 %53, 128
  %67 = add nsw i32 %66, %65
  %68 = lshr i32 %67, 8
  %69 = trunc i32 %68 to i16
  store i16 %69, ptr %6, align 2, !tbaa !13
  %70 = sub nsw i32 %47, %38
  %71 = add nsw i32 %70, 128
  %72 = add nsw i32 %71, %58
  %73 = lshr i32 %72, 8
  %74 = trunc i32 %73 to i16
  store i16 %74, ptr %28, align 2, !tbaa !13
  %75 = sub nsw i32 %46, %36
  %76 = add nsw i32 %27, %16
  %77 = add nsw i32 %76, 128
  %78 = add nsw i32 %77, %75
  %79 = lshr i32 %78, 8
  %80 = trunc i32 %79 to i16
  store i16 %80, ptr %21, align 2, !tbaa !13
  %reass.sub = sub nsw i32 %75, %76
  %81 = add nsw i32 %reass.sub, 128
  %82 = lshr i32 %81, 8
  %83 = trunc i32 %82 to i16
  store i16 %83, ptr %42, align 2, !tbaa !13
  %84 = sub nsw i32 %71, %58
  %85 = lshr i32 %84, 8
  %86 = trunc i32 %85 to i16
  store i16 %86, ptr %17, align 2, !tbaa !13
  %reass.sub61 = sub nsw i32 %65, %53
  %87 = add nsw i32 %reass.sub61, 128
  %88 = lshr i32 %87, 8
  %89 = trunc i32 %88 to i16
  store i16 %89, ptr %32, align 2, !tbaa !13
  %reass.sub62 = sub nsw i32 %59, %60
  %90 = add nsw i32 %reass.sub62, 128
  %91 = lshr i32 %90, 8
  %92 = trunc i32 %91 to i16
  store i16 %92, ptr %10, align 2, !tbaa !13
  %indvars.iv.next = add nuw nsw i64 %indvars.iv, 8
  %93 = icmp samesign ult i64 %indvars.iv, 56
  br i1 %93, label %4, label %.preheader55, !llvm.loop !20

.preheader55:                                     ; preds = %4, %.preheader55
  %indvars.iv64 = phi i64 [ %indvars.iv.next65, %.preheader55 ], [ 0, %4 ]
  %94 = getelementptr inbounds nuw i16, ptr %2, i64 %indvars.iv64
  tail call fastcc void @wmv2_idct_col(ptr noundef %94)
  %indvars.iv.next65 = add nuw nsw i64 %indvars.iv64, 1
  %exitcond.not = icmp eq i64 %indvars.iv.next65, 8
  br i1 %exitcond.not, label %.preheader, label %.preheader55, !llvm.loop !21

.preheader:                                       ; preds = %.preheader55, %.preheader
  %.260 = phi i32 [ %135, %.preheader ], [ 0, %.preheader55 ]
  %.02859 = phi ptr [ %134, %.preheader ], [ %2, %.preheader55 ]
  %.02958 = phi ptr [ %133, %.preheader ], [ %0, %.preheader55 ]
  %95 = load i16, ptr %.02859, align 2, !tbaa !13
  %.not.i = icmp ult i16 %95, 256
  %isnotneg.i = icmp sgt i16 %95, -1
  %96 = sext i1 %isnotneg.i to i8
  %97 = trunc i16 %95 to i8
  %.0.i = select i1 %.not.i, i8 %97, i8 %96
  store i8 %.0.i, ptr %.02958, align 1, !tbaa !18
  %98 = getelementptr inbounds nuw i8, ptr %.02859, i64 2
  %99 = load i16, ptr %98, align 2, !tbaa !13
  %.not.i30 = icmp ult i16 %99, 256
  %isnotneg.i31 = icmp sgt i16 %99, -1
  %100 = sext i1 %isnotneg.i31 to i8
  %101 = trunc i16 %99 to i8
  %.0.i32 = select i1 %.not.i30, i8 %101, i8 %100
  %102 = getelementptr inbounds nuw i8, ptr %.02958, i64 1
  store i8 %.0.i32, ptr %102, align 1, !tbaa !18
  %103 = getelementptr inbounds nuw i8, ptr %.02859, i64 4
  %104 = load i16, ptr %103, align 2, !tbaa !13
  %.not.i33 = icmp ult i16 %104, 256
  %isnotneg.i34 = icmp sgt i16 %104, -1
  %105 = sext i1 %isnotneg.i34 to i8
  %106 = trunc i16 %104 to i8
  %.0.i35 = select i1 %.not.i33, i8 %106, i8 %105
  %107 = getelementptr inbounds nuw i8, ptr %.02958, i64 2
  store i8 %.0.i35, ptr %107, align 1, !tbaa !18
  %108 = getelementptr inbounds nuw i8, ptr %.02859, i64 6
  %109 = load i16, ptr %108, align 2, !tbaa !13
  %.not.i36 = icmp ult i16 %109, 256
  %isnotneg.i37 = icmp sgt i16 %109, -1
  %110 = sext i1 %isnotneg.i37 to i8
  %111 = trunc i16 %109 to i8
  %.0.i38 = select i1 %.not.i36, i8 %111, i8 %110
  %112 = getelementptr inbounds nuw i8, ptr %.02958, i64 3
  store i8 %.0.i38, ptr %112, align 1, !tbaa !18
  %113 = getelementptr inbounds nuw i8, ptr %.02859, i64 8
  %114 = load i16, ptr %113, align 2, !tbaa !13
  %.not.i39 = icmp ult i16 %114, 256
  %isnotneg.i40 = icmp sgt i16 %114, -1
  %115 = sext i1 %isnotneg.i40 to i8
  %116 = trunc i16 %114 to i8
  %.0.i41 = select i1 %.not.i39, i8 %116, i8 %115
  %117 = getelementptr inbounds nuw i8, ptr %.02958, i64 4
  store i8 %.0.i41, ptr %117, align 1, !tbaa !18
  %118 = getelementptr inbounds nuw i8, ptr %.02859, i64 10
  %119 = load i16, ptr %118, align 2, !tbaa !13
  %.not.i42 = icmp ult i16 %119, 256
  %isnotneg.i43 = icmp sgt i16 %119, -1
  %120 = sext i1 %isnotneg.i43 to i8
  %121 = trunc i16 %119 to i8
  %.0.i44 = select i1 %.not.i42, i8 %121, i8 %120
  %122 = getelementptr inbounds nuw i8, ptr %.02958, i64 5
  store i8 %.0.i44, ptr %122, align 1, !tbaa !18
  %123 = getelementptr inbounds nuw i8, ptr %.02859, i64 12
  %124 = load i16, ptr %123, align 2, !tbaa !13
  %.not.i45 = icmp ult i16 %124, 256
  %isnotneg.i46 = icmp sgt i16 %124, -1
  %125 = sext i1 %isnotneg.i46 to i8
  %126 = trunc i16 %124 to i8
  %.0.i47 = select i1 %.not.i45, i8 %126, i8 %125
  %127 = getelementptr inbounds nuw i8, ptr %.02958, i64 6
  store i8 %.0.i47, ptr %127, align 1, !tbaa !18
  %128 = getelementptr inbounds nuw i8, ptr %.02859, i64 14
  %129 = load i16, ptr %128, align 2, !tbaa !13
  %.not.i48 = icmp ult i16 %129, 256
  %isnotneg.i49 = icmp sgt i16 %129, -1
  %130 = sext i1 %isnotneg.i49 to i8
  %131 = trunc i16 %129 to i8
  %.0.i50 = select i1 %.not.i48, i8 %131, i8 %130
  %132 = getelementptr inbounds nuw i8, ptr %.02958, i64 7
  store i8 %.0.i50, ptr %132, align 1, !tbaa !18
  %133 = getelementptr inbounds i8, ptr %.02958, i64 %1
  %134 = getelementptr inbounds nuw i8, ptr %.02859, i64 16
  %135 = add nuw nsw i32 %.260, 1
  %exitcond67.not = icmp eq i32 %135, 8
  br i1 %exitcond67.not, label %136, label %.preheader, !llvm.loop !22

136:                                              ; preds = %.preheader
  ret void
}